; Function Attrs: mustprogress uwtable
define noundef i32 @_Z8add_binrP5t_binN3gmx8ArrayRefIKfEE(ptr nocapture noundef %0, ptr %1, ptr %2) local_unnamed_addr #0 {
  %4 = ptrtoint ptr %2 to i64
  %5 = ptrtoint ptr %1 to i64
  %6 = sub i64 %4, %5
  %7 = lshr exact i64 %6, 2
  %8 = trunc i64 %7 to i32
  %9 = load i32, ptr %0, align 8
  %10 = add nsw i32 %9, %8
  %11 = getelementptr inbounds i8, ptr %0, i64 4
  %12 = load i32, ptr %11, align 4
  %13 = icmp sgt i32 %10, %12
  br i1 %13, label %14, label %._crit_edge29.i

._crit_edge29.i:                                  ; preds = %3
  %.phi.trans.insert.i = getelementptr inbounds i8, ptr %0, i64 8
  %.pre.i = load ptr, ptr %.phi.trans.insert.i, align 8
  br label %21

14:                                               ; preds = %3
  %15 = srem i32 %10, 4
  %.not.i = icmp eq i32 %15, 0
  %reass.sub.i = add i32 %10, 4
  %16 = sub i32 %reass.sub.i, %15
  %storemerge.i = select i1 %.not.i, i32 %10, i32 %16
  store i32 %storemerge.i, ptr %11, align 4
  %17 = getelementptr inbounds i8, ptr %0, i64 8
  %18 = sext i32 %storemerge.i to i64
  %19 = load ptr, ptr %17, align 8
  %20 = tail call noundef ptr @_Z12save_reallocPKcS0_iPvmm(ptr noundef nonnull @.str.2, ptr noundef nonnull @.str.1, i32 noundef 81, ptr noundef %19, i64 noundef %18, i64 noundef 8)
  store ptr %20, ptr %17, align 8
  %.pre30.i = load i32, ptr %0, align 8
  br label %21

21:                                               ; preds = %14, %._crit_edge29.i
  %22 = phi i32 [ %9, %._crit_edge29.i ], [ %.pre30.i, %14 ]
  %23 = phi ptr [ %.pre.i, %._crit_edge29.i ], [ %20, %14 ]
  %24 = sext i32 %22 to i64
  %25 = getelementptr inbounds double, ptr %23, i64 %24
  %26 = icmp sgt i32 %8, 0
  br i1 %26, label %.lr.ph.preheader.i, label %_Z8add_binrP5t_biniPKf.exit

.lr.ph.preheader.i:                               ; preds = %21
  %wide.trip.count.i = and i64 %7, 2147483647
  br label %.lr.ph.i

.lr.ph.i:                                         ; preds = %.lr.ph.i, %.lr.ph.preheader.i
  %indvars.iv.i = phi i64 [ 0, %.lr.ph.preheader.i ], [ %indvars.iv.next.i, %.lr.ph.i ]
  %27 = getelementptr inbounds float, ptr %1, i64 %indvars.iv.i
  %28 = load float, ptr %27, align 4
  %29 = fpext float %28 to double
  %30 = getelementptr inbounds double, ptr %25, i64 %indvars.iv.i
  store double %29, ptr %30, align 8
  %indvars.iv.next.i = add nuw nsw i64 %indvars.iv.i, 1
  %exitcond.not.i = icmp eq i64 %indvars.iv.next.i, %wide.trip.count.i
  br i1 %exitcond.not.i, label %._crit_edge.loopexit.i, label %.lr.ph.i, !llvm.loop !5

._crit_edge.loopexit.i:                           ; preds = %.lr.ph.i
  %.pre31.i = load i32, ptr %0, align 8
  br label %_Z8add_binrP5t_biniPKf.exit

_Z8add_binrP5t_biniPKf.exit:                      ; preds = %21, %._crit_edge.loopexit.i
  %31 = phi i32 [ %.pre31.i, %._crit_edge.loopexit.i ], [ %22, %21 ]
  %32 = add nsw i32 %31, %8
  store i32 %32, ptr %0, align 8
  ret i32 %31
}